target datalayout = "e-m:e-p270:32:32-p271:32:32-p272:64:64-i64:64-i128:128-f80:128-n8:16:32:64-S128"
target triple = "x86_64-pc-linux-gnu"

%struct.Wlc_Ntk_t_ = type { ptr, ptr, %struct.Vec_Int_t_, %struct.Vec_Int_t_, %struct.Vec_Int_t_, %struct.Vec_Int_t_, %struct.Vec_Int_t_, %struct.Vec_Int_t_, ptr, ptr, ptr, [60 x i32], [60 x i32], i32, i32, i32, i32, i32, ptr, i32, i32, ptr, ptr, ptr, ptr, ptr, %struct.Vec_Int_t_, %struct.Vec_Int_t_, i32, %struct.Vec_Int_t_, %struct.Vec_Int_t_, %struct.Vec_Int_t_, %struct.Vec_Int_t_, %struct.Vec_Int_t_, %struct.Vec_Int_t_ }
%struct.Vec_Int_t_ = type { i32, i32, ptr }

; Function Attrs: nounwind uwtable
define internal void @Vec_IntGrow(ptr noundef %0, i32 noundef %1) #0 {
  %3 = alloca ptr, align 8
  %4 = alloca i32, align 4
  store ptr %0, ptr %3, align 8
  store i32 %1, ptr %4, align 4
  %5 = load ptr, ptr %3, align 8
  %6 = getelementptr inbounds %struct.Vec_Int_t_, ptr %5, i32 0, i32 0
  %7 = load i32, ptr %6, align 8
  %8 = load i32, ptr %4, align 4
  %9 = icmp sge i32 %7, %8
  br i1 %9, label %10, label %11

10:                                               ; preds = %2
  br label %36

11:                                               ; preds = %2
  %12 = load ptr, ptr %3, align 8
  %13 = getelementptr inbounds %struct.Vec_Int_t_, ptr %12, i32 0, i32 2
  %14 = load ptr, ptr %13, align 8
  %15 = icmp ne ptr %14, null
  br i1 %15, label %16, label %24

16:                                               ; preds = %11
  %17 = load ptr, ptr %3, align 8
  %18 = getelementptr inbounds %struct.Vec_Int_t_, ptr %17, i32 0, i32 2
  %19 = load ptr, ptr %18, align 8
  %20 = load i32, ptr %4, align 4
  %21 = sext i32 %20 to i64
  %22 = mul i64 4, %21
  %23 = call ptr @realloc(ptr noundef %19, i64 noundef %22) #10
  br label %29

24:                                               ; preds = %11
  %25 = load i32, ptr %4, align 4
  %26 = sext i32 %25 to i64
  %27 = mul i64 4, %26
  %28 = call noalias ptr @malloc(i64 noundef %27) #11
  br label %29

29:                                               ; preds = %24, %16
  %30 = phi ptr [ %23, %16 ], [ %28, %24 ]
  %31 = load ptr, ptr %3, align 8
  %32 = getelementptr inbounds %struct.Vec_Int_t_, ptr %31, i32 0, i32 2
  store ptr %30, ptr %32, align 8
  %33 = load i32, ptr %4, align 4
  %34 = load ptr, ptr %3, align 8
  %35 = getelementptr inbounds %struct.Vec_Int_t_, ptr %34, i32 0, i32 0
  store i32 %33, ptr %35, align 8
  br label %36

36:                                               ; preds = %29, %10
  ret void
}

; Function Attrs: nounwind uwtable
define internal void @Vec_IntWriteEntry(ptr noundef %0, i32 noundef %1, i32 noundef %2) #0 {
  %4 = alloca ptr, align 8
  %5 = alloca i32, align 4
  %6 = alloca i32, align 4
  store ptr %0, ptr %4, align 8
  store i32 %1, ptr %5, align 4
  store i32 %2, ptr %6, align 4
  %7 = load i32, ptr %6, align 4
  %8 = load ptr, ptr %4, align 8
  %9 = getelementptr inbounds %struct.Vec_Int_t_, ptr %8, i32 0, i32 2
  %10 = load ptr, ptr %9, align 8
  %11 = load i32, ptr %5, align 4
  %12 = sext i32 %11 to i64
  %13 = getelementptr inbounds i32, ptr %10, i64 %12
  store i32 %7, ptr %13, align 4
  ret void
}

; Function Attrs: nounwind uwtable
define internal i32 @Vec_IntEntry(ptr noundef %0, i32 noundef %1) #0 {
  %3 = alloca ptr, align 8
  %4 = alloca i32, align 4
  store ptr %0, ptr %3, align 8
  store i32 %1, ptr %4, align 4
  %5 = load ptr, ptr %3, align 8
  %6 = getelementptr inbounds %struct.Vec_Int_t_, ptr %5, i32 0, i32 2
  %7 = load ptr, ptr %6, align 8
  %8 = load i32, ptr %4, align 4
  %9 = sext i32 %8 to i64
  %10 = getelementptr inbounds i32, ptr %7, i64 %9
  %11 = load i32, ptr %10, align 4
  ret i32 %11
}

; Function Attrs: nounwind uwtable
define internal void @Vec_IntFill(ptr noundef %0, i32 noundef %1, i32 noundef %2) #0 {
  %4 = alloca ptr, align 8
  %5 = alloca i32, align 4
  %6 = alloca i32, align 4
  %7 = alloca i32, align 4
  store ptr %0, ptr %4, align 8
  store i32 %1, ptr %5, align 4
  store i32 %2, ptr %6, align 4
  %8 = load ptr, ptr %4, align 8
  %9 = load i32, ptr %5, align 4
  call void @Vec_IntGrow(ptr noundef %8, i32 noundef %9)
  store i32 0, ptr %7, align 4
  br label %10

10:                                               ; preds = %22, %3
  %11 = load i32, ptr %7, align 4
  %12 = load i32, ptr %5, align 4
  %13 = icmp slt i32 %11, %12
  br i1 %13, label %14, label %25

14:                                               ; preds = %10
  %15 = load i32, ptr %6, align 4
  %16 = load ptr, ptr %4, align 8
  %17 = getelementptr inbounds %struct.Vec_Int_t_, ptr %16, i32 0, i32 2
  %18 = load ptr, ptr %17, align 8
  %19 = load i32, ptr %7, align 4
  %20 = sext i32 %19 to i64
  %21 = getelementptr inbounds i32, ptr %18, i64 %20
  store i32 %15, ptr %21, align 4
  br label %22

22:                                               ; preds = %14
  %23 = load i32, ptr %7, align 4
  %24 = add nsw i32 %23, 1
  store i32 %24, ptr %7, align 4
  br label %10, !llvm.loop !9

25:                                               ; preds = %10
  %26 = load i32, ptr %5, align 4
  %27 = load ptr, ptr %4, align 8
  %28 = getelementptr inbounds %struct.Vec_Int_t_, ptr %27, i32 0, i32 1
  store i32 %26, ptr %28, align 4
  ret void
}

; Function Attrs: nounwind uwtable
define internal void @Vec_IntErase(ptr noundef %0) #0 {
  %2 = alloca ptr, align 8
  store ptr %0, ptr %2, align 8
  %3 = load ptr, ptr %2, align 8
  %4 = getelementptr inbounds %struct.Vec_Int_t_, ptr %3, i32 0, i32 2
  %5 = load ptr, ptr %4, align 8
  %6 = icmp ne ptr %5, null
  br i1 %6, label %7, label %13

7:                                                ; preds = %1
  %8 = load ptr, ptr %2, align 8
  %9 = getelementptr inbounds %struct.Vec_Int_t_, ptr %8, i32 0, i32 2
  %10 = load ptr, ptr %9, align 8
  call void @free(ptr noundef %10) #12
  %11 = load ptr, ptr %2, align 8
  %12 = getelementptr inbounds %struct.Vec_Int_t_, ptr %11, i32 0, i32 2
  store ptr null, ptr %12, align 8
  br label %14

13:                                               ; preds = %1
  br label %14

14:                                               ; preds = %13, %7
  %15 = load ptr, ptr %2, align 8
  %16 = getelementptr inbounds %struct.Vec_Int_t_, ptr %15, i32 0, i32 1
  store i32 0, ptr %16, align 4
  %17 = load ptr, ptr %2, align 8
  %18 = getelementptr inbounds %struct.Vec_Int_t_, ptr %17, i32 0, i32 0
  store i32 0, ptr %18, align 8
  ret void
}

; Function Attrs: nounwind uwtable
define internal void @Wlc_ObjSetNameId(ptr noundef %0, i32 noundef %1, i32 noundef %2) #0 {
  %4 = alloca ptr, align 8
  %5 = alloca i32, align 4
  %6 = alloca i32, align 4
  store ptr %0, ptr %4, align 8
  store i32 %1, ptr %5, align 4
  store i32 %2, ptr %6, align 4
  %7 = load ptr, ptr %4, align 8
  %8 = getelementptr inbounds %struct.Wlc_Ntk_t_, ptr %7, i32 0, i32 26
  %9 = load i32, ptr %5, align 4
  %10 = load i32, ptr %6, align 4
  call void @Vec_IntWriteEntry(ptr noundef %8, i32 noundef %9, i32 noundef %10)
  ret void
}

; Function Attrs: nounwind uwtable
define internal i32 @Wlc_ObjNameId(ptr noundef %0, i32 noundef %1) #0 {
  %3 = alloca ptr, align 8
  %4 = alloca i32, align 4
  store ptr %0, ptr %3, align 8
  store i32 %1, ptr %4, align 4
  %5 = load ptr, ptr %3, align 8
  %6 = getelementptr inbounds %struct.Wlc_Ntk_t_, ptr %5, i32 0, i32 26
  %7 = load i32, ptr %4, align 4
  %8 = call i32 @Vec_IntEntry(ptr noundef %6, i32 noundef %7)
  ret i32 %8
}

; Function Attrs: nounwind uwtable
define internal i32 @Vec_IntSize(ptr noundef %0) #0 {
  %2 = alloca ptr, align 8
  store ptr %0, ptr %2, align 8
  %3 = load ptr, ptr %2, align 8
  %4 = getelementptr inbounds %struct.Vec_Int_t_, ptr %3, i32 0, i32 1
  %5 = load i32, ptr %4, align 4
  ret i32 %5
}

; Function Attrs: nounwind uwtable
define internal i32 @Wlc_ObjCopy(ptr noundef %0, i32 noundef %1) #0 {
  %3 = alloca ptr, align 8
  %4 = alloca i32, align 4
  store ptr %0, ptr %3, align 8
  store i32 %1, ptr %4, align 4
  %5 = load ptr, ptr %3, align 8
  %6 = getelementptr inbounds %struct.Wlc_Ntk_t_, ptr %5, i32 0, i32 30
  %7 = load i32, ptr %4, align 4
  %8 = call i32 @Vec_IntEntry(ptr noundef %6, i32 noundef %7)
  ret i32 %8
}

; Function Attrs: nounwind uwtable
define internal void @Wlc_NtkCleanNameId(ptr noundef %0) #0 {
  %2 = alloca ptr, align 8
  store ptr %0, ptr %2, align 8
  %3 = load ptr, ptr %2, align 8
  %4 = getelementptr inbounds %struct.Wlc_Ntk_t_, ptr %3, i32 0, i32 26
  %5 = load ptr, ptr %2, align 8
  %6 = getelementptr inbounds %struct.Wlc_Ntk_t_, ptr %5, i32 0, i32 20
  %7 = load i32, ptr %6, align 4
  call void @Vec_IntFill(ptr noundef %4, i32 noundef %7, i32 noundef 0)
  ret void
}

; Function Attrs: nounwind uwtable
define void @Wlc_NtkTransferNames(ptr noundef %0, ptr noundef %1) #0 {
  %3 = alloca ptr, align 8
  %4 = alloca ptr, align 8
  %5 = alloca i32, align 4
  store ptr %0, ptr %3, align 8
  store ptr %1, ptr %4, align 8
  %6 = load ptr, ptr %3, align 8
  call void @Wlc_NtkCleanNameId(ptr noundef %6)
  store i32 0, ptr %5, align 4
  br label %7

7:                                                ; preds = %38, %2
  %8 = load i32, ptr %5, align 4
  %9 = load ptr, ptr %4, align 8
  %10 = getelementptr inbounds %struct.Wlc_Ntk_t_, ptr %9, i32 0, i32 20
  %11 = load i32, ptr %10, align 4
  %12 = icmp slt i32 %8, %11
  br i1 %12, label %13, label %41

13:                                               ; preds = %7
  %14 = load ptr, ptr %4, align 8
  %15 = load i32, ptr %5, align 4
  %16 = call i32 @Wlc_ObjCopy(ptr noundef %14, i32 noundef %15)
  %17 = icmp sgt i32 %16, 0
  br i1 %17, label %18, label %37

18:                                               ; preds = %13
  %19 = load i32, ptr %5, align 4
  %20 = load ptr, ptr %4, align 8
  %21 = getelementptr inbounds %struct.Wlc_Ntk_t_, ptr %20, i32 0, i32 26
  %22 = call i32 @Vec_IntSize(ptr noundef %21)
  %23 = icmp slt i32 %19, %22
  br i1 %23, label %24, label %37

24:                                               ; preds = %18
  %25 = load ptr, ptr %4, align 8
  %26 = load i32, ptr %5, align 4
  %27 = call i32 @Wlc_ObjNameId(ptr noundef %25, i32 noundef %26)
  %28 = icmp ne i32 %27, 0
  br i1 %28, label %29, label %37

29:                                               ; preds = %24
  %30 = load ptr, ptr %3, align 8
  %31 = load ptr, ptr %4, align 8
  %32 = load i32, ptr %5, align 4
  %33 = call i32 @Wlc_ObjCopy(ptr noundef %31, i32 noundef %32)
  %34 = load ptr, ptr %4, align 8
  %35 = load i32, ptr %5, align 4
  %36 = call i32 @Wlc_ObjNameId(ptr noundef %34, i32 noundef %35)
  call void @Wlc_ObjSetNameId(ptr noundef %30, i32 noundef %33, i32 noundef %36)
  br label %37

37:                                               ; preds = %29, %24, %18, %13
  br label %38

38:                                               ; preds = %37
  %39 = load i32, ptr %5, align 4
  %40 = add nsw i32 %39, 1
  store i32 %40, ptr %5, align 4
  br label %7, !llvm.loop !48

41:                                               ; preds = %7
  %42 = load ptr, ptr %4, align 8
  %43 = getelementptr inbounds %struct.Wlc_Ntk_t_, ptr %42, i32 0, i32 25
  %44 = load ptr, ptr %43, align 8
  %45 = load ptr, ptr %3, align 8
  %46 = getelementptr inbounds %struct.Wlc_Ntk_t_, ptr %45, i32 0, i32 25
  store ptr %44, ptr %46, align 8
  %47 = load ptr, ptr %4, align 8
  %48 = getelementptr inbounds %struct.Wlc_Ntk_t_, ptr %47, i32 0, i32 25
  store ptr null, ptr %48, align 8
  %49 = load ptr, ptr %4, align 8
  %50 = getelementptr inbounds %struct.Wlc_Ntk_t_, ptr %49, i32 0, i32 26
  call void @Vec_IntErase(ptr noundef %50)
  %51 = load ptr, ptr %4, align 8
  %52 = getelementptr inbounds %struct.Wlc_Ntk_t_, ptr %51, i32 0, i32 22
  %53 = load ptr, ptr %52, align 8
  %54 = load ptr, ptr %3, align 8
  %55 = getelementptr inbounds %struct.Wlc_Ntk_t_, ptr %54, i32 0, i32 22
  store ptr %53, ptr %55, align 8
  %56 = load ptr, ptr %4, align 8
  %57 = getelementptr inbounds %struct.Wlc_Ntk_t_, ptr %56, i32 0, i32 22
  store ptr null, ptr %57, align 8
  %58 = load ptr, ptr %4, align 8
  %59 = getelementptr inbounds %struct.Wlc_Ntk_t_, ptr %58, i32 0, i32 23
  %60 = load ptr, ptr %59, align 8
  %61 = load ptr, ptr %3, align 8
  %62 = getelementptr inbounds %struct.Wlc_Ntk_t_, ptr %61, i32 0, i32 23
  store ptr %60, ptr %62, align 8
  %63 = load ptr, ptr %4, align 8
  %64 = getelementptr inbounds %struct.Wlc_Ntk_t_, ptr %63, i32 0, i32 23
  store ptr null, ptr %64, align 8
  ret void
}