; Function Attrs: nounwind uwtable
define void @Wlc_NtkTransferNames(ptr noundef captures(none) %0, ptr noundef captures(none) %1) local_unnamed_addr #3 {
  %3 = getelementptr inbounds nuw i8, ptr %0, i64 696
  %4 = getelementptr inbounds nuw i8, ptr %0, i64 652
  %5 = load i32, ptr %4, align 4
  %6 = load i32, ptr %3, align 8
  %.not.i.i.i = icmp slt i32 %6, %5
  br i1 %.not.i.i.i, label %7, label %Vec_IntGrow.exit.i.i

7:                                                ; preds = %2
  %8 = getelementptr inbounds nuw i8, ptr %0, i64 704
  %9 = load ptr, ptr %8, align 8
  %.not9.i.i.i = icmp eq ptr %9, null
  %10 = sext i32 %5 to i64
  %11 = shl nsw i64 %10, 2
  br i1 %.not9.i.i.i, label %14, label %12

12:                                               ; preds = %7
  %13 = tail call ptr @realloc(ptr noundef nonnull %9, i64 noundef %11) #27
  br label %16

14:                                               ; preds = %7
  %15 = tail call noalias ptr @malloc(i64 noundef %11) #26
  br label %16

16:                                               ; preds = %14, %12
  %17 = phi ptr [ %13, %12 ], [ %15, %14 ]
  store ptr %17, ptr %8, align 8
  store i32 %5, ptr %3, align 8
  br label %Vec_IntGrow.exit.i.i

Vec_IntGrow.exit.i.i:                             ; preds = %16, %2
  %18 = icmp sgt i32 %5, 0
  br i1 %18, label %.lr.ph.i.i, label %Wlc_NtkCleanNameId.exit

.lr.ph.i.i:                                       ; preds = %Vec_IntGrow.exit.i.i
  %19 = getelementptr inbounds nuw i8, ptr %0, i64 704
  %wide.trip.count.i.i = zext nneg i32 %5 to i64
  br label %20

20:                                               ; preds = %20, %.lr.ph.i.i
  %indvars.iv.i.i = phi i64 [ 0, %.lr.ph.i.i ], [ %indvars.iv.next.i.i, %20 ]
  %21 = load ptr, ptr %19, align 8
  %22 = getelementptr inbounds nuw i32, ptr %21, i64 %indvars.iv.i.i
  store i32 0, ptr %22, align 4
  %indvars.iv.next.i.i = add nuw nsw i64 %indvars.iv.i.i, 1
  %exitcond.not.i.i = icmp eq i64 %indvars.iv.next.i.i, %wide.trip.count.i.i
  br i1 %exitcond.not.i.i, label %Wlc_NtkCleanNameId.exit, label %20, !llvm.loop !7

Wlc_NtkCleanNameId.exit:                          ; preds = %20, %Vec_IntGrow.exit.i.i
  %23 = getelementptr inbounds nuw i8, ptr %0, i64 700
  store i32 %5, ptr %23, align 4
  %24 = getelementptr inbounds nuw i8, ptr %1, i64 652
  %25 = load i32, ptr %24, align 4
  %26 = icmp sgt i32 %25, 0
  br i1 %26, label %.lr.ph, label %._crit_edge

.lr.ph:                                           ; preds = %Wlc_NtkCleanNameId.exit
  %27 = getelementptr i8, ptr %1, i64 760
  %28 = getelementptr i8, ptr %1, i64 700
  %29 = getelementptr i8, ptr %1, i64 704
  %30 = getelementptr i8, ptr %0, i64 704
  br label %31

31:                                               ; preds = %.lr.ph, %45
  %32 = phi i32 [ %25, %.lr.ph ], [ %46, %45 ]
  %indvars.iv = phi i64 [ 0, %.lr.ph ], [ %indvars.iv.next, %45 ]
  %.val26 = load ptr, ptr %27, align 8
  %33 = getelementptr inbounds nuw i32, ptr %.val26, i64 %indvars.iv
  %34 = load i32, ptr %33, align 4
  %35 = icmp sgt i32 %34, 0
  br i1 %35, label %36, label %45

36:                                               ; preds = %31
  %.val = load i32, ptr %28, align 4
  %37 = sext i32 %.val to i64
  %38 = icmp slt i64 %indvars.iv, %37
  br i1 %38, label %39, label %45

39:                                               ; preds = %36
  %.val25 = load ptr, ptr %29, align 8
  %40 = getelementptr inbounds nuw i32, ptr %.val25, i64 %indvars.iv
  %41 = load i32, ptr %40, align 4
  %.not = icmp eq i32 %41, 0
  br i1 %.not, label %45, label %42

42:                                               ; preds = %39
  %.val28 = load ptr, ptr %30, align 8
  %43 = zext nneg i32 %34 to i64
  %44 = getelementptr inbounds nuw i32, ptr %.val28, i64 %43
  store i32 %41, ptr %44, align 4
  %.pre = load i32, ptr %24, align 4
  br label %45

45:                                               ; preds = %31, %36, %39, %42
  %46 = phi i32 [ %32, %31 ], [ %32, %36 ], [ %32, %39 ], [ %.pre, %42 ]
  %indvars.iv.next = add nuw nsw i64 %indvars.iv, 1
  %47 = sext i32 %46 to i64
  %48 = icmp slt i64 %indvars.iv.next, %47
  br i1 %48, label %31, label %._crit_edge, !llvm.loop !47

._crit_edge:                                      ; preds = %45, %Wlc_NtkCleanNameId.exit
  %49 = getelementptr inbounds nuw i8, ptr %1, i64 688
  %50 = load ptr, ptr %49, align 8
  %51 = getelementptr inbounds nuw i8, ptr %0, i64 688
  store ptr %50, ptr %51, align 8
  store ptr null, ptr %49, align 8
  %52 = getelementptr inbounds nuw i8, ptr %1, i64 704
  %53 = load ptr, ptr %52, align 8
  %.not.i = icmp eq ptr %53, null
  br i1 %.not.i, label %Vec_IntErase.exit, label %54

54:                                               ; preds = %._crit_edge
  tail call void @free(ptr noundef nonnull %53) #25
  store ptr null, ptr %52, align 8
  br label %Vec_IntErase.exit

Vec_IntErase.exit:                                ; preds = %._crit_edge, %54
  %55 = getelementptr inbounds nuw i8, ptr %1, i64 696
  %56 = getelementptr inbounds nuw i8, ptr %1, i64 700
  store i32 0, ptr %56, align 4
  store i32 0, ptr %55, align 8
  %57 = getelementptr inbounds nuw i8, ptr %1, i64 664
  %58 = load ptr, ptr %57, align 8
  %59 = getelementptr inbounds nuw i8, ptr %0, i64 664
  store ptr %58, ptr %59, align 8
  store ptr null, ptr %57, align 8
  %60 = getelementptr inbounds nuw i8, ptr %1, i64 672
  %61 = load ptr, ptr %60, align 8
  %62 = getelementptr inbounds nuw i8, ptr %0, i64 672
  store ptr %61, ptr %62, align 8
  store ptr null, ptr %60, align 8
  ret void
}